(lp0
I19
aI-1
aI47
aI-1
aI52
aI-1
aI94
aI59
aI131
aI27
aI157
aI67
aI204
aI33
aI257
aI137
aI293
aI89
aI137
aI293
aI89
aI356
aI201
aI425
aI61
aI471
aI247
aI550
aI151
aI635
aI331
aI691
aI97
aI786
aI427
aI887
aI229
aI953
aI493
aI1064
aI141
aI1181
aI609
aI1257
aI347
aI1384
aI737
aI1517
aI193
aI1603
aI823
a.